; Function Attrs: mustprogress uwtable
define noundef nonnull ptr @_Z25coco_string_create_appendPKwS0_(ptr noundef %0, ptr noundef %1) local_unnamed_addr #2 {
  %.not = icmp eq ptr %0, null
  br i1 %.not, label %6, label %3

3:                                                ; preds = %2
  %4 = tail call i64 @wcslen(ptr noundef nonnull %0) #24
  %5 = trunc i64 %4 to i32
  br label %6

6:                                                ; preds = %3, %2
  %.016 = phi i32 [ %5, %3 ], [ 0, %2 ]
  %.not20 = icmp eq ptr %1, null
  br i1 %.not20, label %10, label %7

7:                                                ; preds = %6
  %8 = tail call i64 @wcslen(ptr noundef nonnull %1) #24
  %9 = trunc i64 %8 to i32
  br label %10

10:                                               ; preds = %7, %6
  %.0 = phi i32 [ %9, %7 ], [ 0, %6 ]
  %11 = add nsw i32 %.0, %.016
  %12 = add nsw i32 %11, 1
  %13 = sext i32 %12 to i64
  %14 = icmp slt i32 %11, -1
  %15 = shl nsw i64 %13, 2
  %16 = select i1 %14, i64 -1, i64 %15
  %17 = tail call noalias noundef nonnull ptr @_Znam(i64 noundef %16) #21
  br i1 %.not, label %20, label %18

18:                                               ; preds = %10
  %19 = tail call ptr @wcscpy(ptr noundef nonnull %17, ptr noundef nonnull %0) #22
  br label %20

20:                                               ; preds = %18, %10
  br i1 %.not20, label %25, label %21

21:                                               ; preds = %20
  %22 = sext i32 %.016 to i64
  %23 = getelementptr inbounds i32, ptr %17, i64 %22
  %24 = tail call ptr @wcscpy(ptr noundef nonnull %23, ptr noundef nonnull %1) #22
  br label %25

25:                                               ; preds = %21, %20
  %26 = sext i32 %11 to i64
  %27 = getelementptr inbounds i32, ptr %17, i64 %26
  store i32 0, ptr %27, align 4
  ret ptr %17
}